target datalayout = "e-m:e-p270:32:32-p271:32:32-p272:64:64-i64:64-i128:128-f80:128-n8:16:32:64-S128"
target triple = "x86_64-pc-linux-gnu"

%class.Metadata = type { ptr }
%class.OopHandle = type { ptr }
%class.AccessFlags = type { i32 }
%class.ArrayKlass = type { %class.Klass.base, i32, ptr, ptr }
%class.Klass.base = type <{ %class.Metadata, i32, i32, i32, i32, ptr, ptr, ptr, [8 x ptr], %class.OopHandle, ptr, ptr, ptr, ptr, ptr, i32, %class.AccessFlags, i64, i64, i8, i8, i16, i16, [2 x i8], i32 }>

; Function Attrs: mustprogress nounwind uwtable
define linkonce_odr hidden noundef i32 @_ZNK10ArrayKlass9dimensionEv(ptr noundef nonnull align 8 dereferenceable(216) %0) #1 comdat align 2 {
  %2 = alloca ptr, align 8
  store ptr %0, ptr %2, align 8
  %3 = load ptr, ptr %2, align 8
  %4 = getelementptr inbounds %class.ArrayKlass, ptr %3, i32 0, i32 1
  %5 = load i32, ptr %4, align 4
  ret i32 %5
}

; Function Attrs: mustprogress nounwind uwtable
define hidden noundef ptr @_ZN10ArrayKlass19array_klass_or_nullEv(ptr noundef nonnull align 8 dereferenceable(216) %0) unnamed_addr #1 align 2 {
  %2 = alloca ptr, align 8
  store ptr %0, ptr %2, align 8
  %3 = load ptr, ptr %2, align 8
  %4 = call noundef i32 @_ZNK10ArrayKlass9dimensionEv(ptr noundef nonnull align 8 dereferenceable(216) %3)
  %5 = add nsw i32 %4, 1
  %6 = load ptr, ptr %3, align 8
  %7 = getelementptr inbounds ptr, ptr %6, i64 27
  %8 = load ptr, ptr %7, align 8
  %9 = call noundef ptr %8(ptr noundef nonnull align 8 dereferenceable(216) %3, i32 noundef %5)
  ret ptr %9
}