; Function Attrs: mustprogress nounwind uwtable
define hidden noundef ptr @_ZN10ArrayKlass19array_klass_or_nullEv(ptr noundef nonnull align 8 dereferenceable(216) %0) unnamed_addr #0 align 2 {
  %2 = getelementptr inbounds i8, ptr %0, i64 196
  %3 = load i32, ptr %2, align 4
  %4 = add nsw i32 %3, 1
  %5 = load ptr, ptr %0, align 8
  %6 = getelementptr inbounds i8, ptr %5, i64 216
  %7 = load ptr, ptr %6, align 8
  %8 = tail call noundef ptr %7(ptr noundef nonnull align 8 dereferenceable(216) %0, i32 noundef %4) #13
  ret ptr %8
}